; ModuleID = 'source-C-CXX/15/1142.cpp'
source_filename = "source-C-CXX/15/1142.cpp"
target datalayout = "e-m:e-p270:32:32-p271:32:32-p272:64:64-i64:64-f80:128-n8:16:32:64-S128"
target triple = "x86_64-pc-linux-gnu"

%"class.std::ios_base::Init" = type { i8 }
%"class.std::basic_istream" = type { i32 (...)**, i64, %"class.std::basic_ios" }
%"class.std::basic_ios" = type { %"class.std::ios_base", %"class.std::basic_ostream"*, i8, i8, %"class.std::basic_streambuf"*, %"class.std::ctype"*, %"class.std::num_put"*, %"class.std::num_get"* }
%"class.std::ios_base" = type { i32 (...)**, i64, i64, i32, i32, i32, %"struct.std::ios_base::_Callback_list"*, %"struct.std::ios_base::_Words", [8 x %"struct.std::ios_base::_Words"], i32, %"struct.std::ios_base::_Words"*, %"class.std::locale" }
%"struct.std::ios_base::_Callback_list" = type { %"struct.std::ios_base::_Callback_list"*, void (i32, %"class.std::ios_base"*, i32)*, i32, i32 }
%"struct.std::ios_base::_Words" = type { i8*, i64 }
%"class.std::locale" = type { %"class.std::locale::_Impl"* }
%"class.std::locale::_Impl" = type { i32, %"class.std::locale::facet"**, i64, %"class.std::locale::facet"**, i8** }
%"class.std::locale::facet" = type <{ i32 (...)**, i32, [4 x i8] }>
%"class.std::basic_ostream" = type { i32 (...)**, %"class.std::basic_ios" }
%"class.std::basic_streambuf" = type { i32 (...)**, i8*, i8*, i8*, i8*, i8*, i8*, %"class.std::locale" }
%"class.std::ctype" = type <{ %"class.std::locale::facet.base", [4 x i8], %struct.__locale_struct*, i8, [7 x i8], i32*, i32*, i16*, i8, [256 x i8], [256 x i8], i8, [6 x i8] }>
%"class.std::locale::facet.base" = type <{ i32 (...)**, i32 }>
%struct.__locale_struct = type { [13 x %struct.__locale_data*], i16*, i32*, i32*, [13 x i8*] }
%struct.__locale_data = type opaque
%"class.std::num_put" = type { %"class.std::locale::facet.base", [4 x i8] }
%"class.std::num_get" = type { %"class.std::locale::facet.base", [4 x i8] }

@_ZStL8__ioinit = internal global %"class.std::ios_base::Init" zeroinitializer, align 1
@__dso_handle = external hidden global i8
@_ZSt3cin = external global %"class.std::basic_istream", align 8
@_ZSt4cout = external global %"class.std::basic_ostream", align 8
@llvm.global_ctors = appending global [1 x { i32, void ()*, i8* }] [{ i32, void ()*, i8* } { i32 65535, void ()* @_GLOBAL__sub_I_1142.cpp, i8* null }]

declare void @_ZNSt8ios_base4InitC1Ev(%"class.std::ios_base::Init"* nonnull align 1 dereferenceable(1)) unnamed_addr #0

; Function Attrs: nounwind
declare void @_ZNSt8ios_base4InitD1Ev(%"class.std::ios_base::Init"* nonnull align 1 dereferenceable(1)) unnamed_addr #1

; Function Attrs: nofree nounwind
declare i32 @__cxa_atexit(void (i8*)*, i8*, i8*) local_unnamed_addr #2

; Function Attrs: mustprogress norecurse sspstrong uwtable
define dso_local i32 @main() local_unnamed_addr #3 {
  %1 = alloca i32, align 4
  %2 = alloca [5 x i32], align 16
  %3 = bitcast i32* %1 to i8*
  call void @llvm.lifetime.start.p0i8(i64 4, i8* nonnull %3) #6
  %4 = bitcast [5 x i32]* %2 to i8*
  call void @llvm.lifetime.start.p0i8(i64 20, i8* nonnull %4) #6
  %5 = call nonnull align 8 dereferenceable(16) %"class.std::basic_istream"* @_ZNSirsERi(%"class.std::basic_istream"* nonnull align 8 dereferenceable(16) @_ZSt3cin, i32* nonnull align 4 dereferenceable(4) %1)
  %6 = load i32, i32* %1, align 4, !tbaa !5
  %7 = srem i32 %6, 10
  %8 = getelementptr inbounds [5 x i32], [5 x i32]* %2, i64 0, i64 0
  store i32 %7, i32* %8, align 16, !tbaa !5
  %9 = sdiv i32 %6, 10
  %10 = srem i32 %9, 10
  %11 = getelementptr inbounds [5 x i32], [5 x i32]* %2, i64 0, i64 1
  store i32 %10, i32* %11, align 4, !tbaa !5
  %12 = sdiv i32 %6, 100
  %13 = srem i32 %12, 10
  %14 = getelementptr inbounds [5 x i32], [5 x i32]* %2, i64 0, i64 2
  store i32 %13, i32* %14, align 8, !tbaa !5
  %15 = sdiv i32 %6, 1000
  %16 = srem i32 %15, 10
  %17 = getelementptr inbounds [5 x i32], [5 x i32]* %2, i64 0, i64 3
  store i32 %16, i32* %17, align 4, !tbaa !5
  %18 = sdiv i32 %6, 10000
  %19 = srem i32 %18, 10
  %20 = getelementptr inbounds [5 x i32], [5 x i32]* %2, i64 0, i64 4
  store i32 %19, i32* %20, align 16, !tbaa !5
  %21 = icmp eq i32 %6, 0
  br i1 %21, label %24, label %22

22:                                               ; preds = %0
  %23 = icmp eq i32 %19, 0
  br i1 %23, label %26, label %35, !llvm.loop !9

24:                                               ; preds = %0
  %25 = call nonnull align 8 dereferenceable(8) %"class.std::basic_ostream"* @_ZNSolsEi(%"class.std::basic_ostream"* nonnull align 8 dereferenceable(8) @_ZSt4cout, i32 0)
  br label %49

26:                                               ; preds = %22, %26
  %27 = phi i64 [ %32, %26 ], [ 3, %22 ]
  %28 = phi i64 [ %27, %26 ], [ 4, %22 ]
  %29 = getelementptr inbounds [5 x i32], [5 x i32]* %2, i64 0, i64 %27
  %30 = load i32, i32* %29, align 4, !tbaa !5
  %31 = icmp eq i32 %30, 0
  %32 = add i64 %27, -1
  br i1 %31, label %26, label %33, !llvm.loop !9

33:                                               ; preds = %26
  %34 = trunc i64 %28 to i32
  br label %35

35:                                               ; preds = %33, %22
  %36 = phi i32 [ %34, %33 ], [ undef, %22 ]
  %37 = icmp sgt i32 %36, 0
  br i1 %37, label %38, label %49

38:                                               ; preds = %35
  %39 = zext i32 %36 to i64
  %40 = call nonnull align 8 dereferenceable(8) %"class.std::basic_ostream"* @_ZNSolsEi(%"class.std::basic_ostream"* nonnull align 8 dereferenceable(8) @_ZSt4cout, i32 %7)
  %41 = icmp eq i32 %36, 1
  br i1 %41, label %49, label %42, !llvm.loop !11

42:                                               ; preds = %38, %42
  %43 = phi i64 [ %47, %42 ], [ 1, %38 ]
  %44 = getelementptr inbounds [5 x i32], [5 x i32]* %2, i64 0, i64 %43
  %45 = load i32, i32* %44, align 4, !tbaa !5
  %46 = call nonnull align 8 dereferenceable(8) %"class.std::basic_ostream"* @_ZNSolsEi(%"class.std::basic_ostream"* nonnull align 8 dereferenceable(8) @_ZSt4cout, i32 %45)
  %47 = add nuw nsw i64 %43, 1
  %48 = icmp eq i64 %47, %39
  br i1 %48, label %49, label %42, !llvm.loop !11

49:                                               ; preds = %42, %38, %35, %24
  call void @llvm.lifetime.end.p0i8(i64 20, i8* nonnull %4) #6
  call void @llvm.lifetime.end.p0i8(i64 4, i8* nonnull %3) #6
  ret i32 0
}

; Function Attrs: argmemonly mustprogress nofree nosync nounwind willreturn
declare void @llvm.lifetime.start.p0i8(i64 immarg, i8* nocapture) #4

declare nonnull align 8 dereferenceable(16) %"class.std::basic_istream"* @_ZNSirsERi(%"class.std::basic_istream"* nonnull align 8 dereferenceable(16), i32* nonnull align 4 dereferenceable(4)) local_unnamed_addr #0

declare nonnull align 8 dereferenceable(8) %"class.std::basic_ostream"* @_ZNSolsEi(%"class.std::basic_ostream"* nonnull align 8 dereferenceable(8), i32) local_unnamed_addr #0

; Function Attrs: argmemonly mustprogress nofree nosync nounwind willreturn
declare void @llvm.lifetime.end.p0i8(i64 immarg, i8* nocapture) #4

; Function Attrs: sspstrong uwtable
define internal void @_GLOBAL__sub_I_1142.cpp() #5 section ".text.startup" {
  tail call void @_ZNSt8ios_base4InitC1Ev(%"class.std::ios_base::Init"* nonnull align 1 dereferenceable(1) @_ZStL8__ioinit)
  %1 = tail call i32 @__cxa_atexit(void (i8*)* bitcast (void (%"class.std::ios_base::Init"*)* @_ZNSt8ios_base4InitD1Ev to void (i8*)*), i8* getelementptr inbounds (%"class.std::ios_base::Init", %"class.std::ios_base::Init"* @_ZStL8__ioinit, i64 0, i32 0), i8* nonnull @__dso_handle) #6
  ret void
}


!llvm.module.flags = !{!0, !1, !2, !3}
!llvm.ident = !{!4}

!0 = !{i32 1, !"wchar_size", i32 4}
!1 = !{i32 7, !"PIC Level", i32 2}
!2 = !{i32 7, !"PIE Level", i32 2}
!3 = !{i32 7, !"uwtable", i32 1}
!4 = !{!"clang version 13.0.0"}
!5 = !{!6, !6, i64 0}
!6 = !{!"int", !7, i64 0}
!7 = !{!"omnipotent char", !8, i64 0}
!8 = !{!"Simple C++ TBAA"}
!9 = distinct !{!9, !10}
!10 = !{!"llvm.loop.mustprogress"}
!11 = distinct !{!11, !10}
